; Function Attrs: mustprogress uwtable
define noundef zeroext i1 @_ZN10open_spiel12crazy_eights16CrazyEightsState19CheckAllCardsPlayedEi(ptr nocapture noundef nonnull readonly align 8 dereferenceable(392) %0, i32 noundef %1) local_unnamed_addr #3 align 2 personality ptr @__gxx_personality_v0 {
  %3 = alloca i32, align 4
  %4 = alloca i32, align 4
  %5 = alloca %"class.std::__cxx11::basic_string", align 8
  %6 = alloca i32, align 4
  %7 = getelementptr inbounds nuw i8, ptr %0, i64 368
  %8 = getelementptr inbounds nuw i8, ptr %0, i64 64
  %9 = load i32, ptr %8, align 8
  %10 = sext i32 %9 to i64
  %11 = load ptr, ptr %7, align 8
  %12 = getelementptr inbounds %"class.std::vector.25", ptr %11, i64 %10
  %13 = sext i32 %1 to i64
  %14 = load ptr, ptr %12, align 8
  %15 = getelementptr inbounds i32, ptr %14, i64 %13
  %16 = load i32, ptr %15, align 4
  store i32 %16, ptr %3, align 4
  store i32 0, ptr %4, align 4
  %17 = icmp sgt i32 %16, 0
  br i1 %17, label %22, label %18

18:                                               ; preds = %2
  store i32 587, ptr %6, align 4
  call void @_ZN10open_spiel8internal11SpielStrCatIJRA144_KcRA2_S2_iS6_RA36_S2_RA33_S2_RA4_S2_RiRA7_S2_SD_EEENSt7__cxx1112basic_stringIcSt11char_traitsIcESaIcEEEDpOT_(ptr dead_on_unwind nonnull writable sret(%"class.std::__cxx11::basic_string") align 8 %5, ptr noundef nonnull align 1 dereferenceable(144) @.str.20, ptr noundef nonnull align 1 dereferenceable(2) @.str.21, ptr noundef nonnull align 4 dereferenceable(4) %6, ptr noundef nonnull align 1 dereferenceable(2) @.str.22, ptr noundef nonnull align 1 dereferenceable(36) @.str.89, ptr noundef nonnull align 1 dereferenceable(33) @.str.90, ptr noundef nonnull align 1 dereferenceable(4) @.str.25, ptr noundef nonnull align 4 dereferenceable(4) %3, ptr noundef nonnull align 1 dereferenceable(7) @.str.35, ptr noundef nonnull align 4 dereferenceable(4) %4)
  invoke void @_ZN10open_spiel15SpielFatalErrorERKNSt7__cxx1112basic_stringIcSt11char_traitsIcESaIcEEE(ptr noundef nonnull align 8 dereferenceable(32) %5) #24
          to label %19 unwind label %20

19:                                               ; preds = %18
  unreachable

20:                                               ; preds = %18
  %21 = landingpad { ptr, i32 }
          cleanup
  call void @_ZNSt7__cxx1112basic_stringIcSt11char_traitsIcESaIcEED1Ev(ptr noundef nonnull align 8 dereferenceable(32) %5) #25
  resume { ptr, i32 } %21

22:                                               ; preds = %2
  %23 = add nsw i32 %16, -1
  store i32 %23, ptr %15, align 4
  %24 = load i32, ptr %8, align 8
  %25 = sext i32 %24 to i64
  %26 = load ptr, ptr %7, align 8
  %27 = getelementptr inbounds %"class.std::vector.25", ptr %26, i64 %25
  %28 = load ptr, ptr %27, align 8
  br label %29

29:                                               ; preds = %22, %29
  %indvars.iv = phi i64 [ 0, %22 ], [ %indvars.iv.next, %29 ]
  %.0910 = phi i1 [ true, %22 ], [ %32, %29 ]
  %30 = getelementptr inbounds i32, ptr %28, i64 %indvars.iv
  %31 = load i32, ptr %30, align 4
  %.not = icmp eq i32 %31, 0
  %32 = and i1 %.0910, %.not
  %indvars.iv.next = add nuw nsw i64 %indvars.iv, 1
  %exitcond.not = icmp eq i64 %indvars.iv.next, 52
  br i1 %exitcond.not, label %33, label %29, !llvm.loop !128

33:                                               ; preds = %29
  ret i1 %32
}